target datalayout = "e-m:e-p270:32:32-p271:32:32-p272:64:64-i64:64-i128:128-f80:128-n8:16:32:64-S128"
target triple = "x86_64-pc-linux-gnu"

%"class.ue2::CharReach" = type { %"class.ue2::bitfield" }
%"class.ue2::bitfield" = type { %"struct.std::array" }
%"struct.std::array" = type { [4 x i64] }

; Function Attrs: mustprogress nounwind uwtable
define linkonce_odr dso_local noundef ptr @_ZNSt14__array_traitsIyLm4EE6_S_ptrERA4_Ky(ptr noundef nonnull align 8 dereferenceable(32) %0) #1 comdat align 2 {
  %2 = alloca ptr, align 8
  store ptr %0, ptr %2, align 8
  %3 = load ptr, ptr %2, align 8
  %4 = getelementptr inbounds [4 x i64], ptr %3, i64 0, i64 0
  ret ptr %4
}

; Function Attrs: mustprogress nounwind uwtable
define linkonce_odr dso_local noundef nonnull align 8 dereferenceable(8) ptr @_ZNSt5arrayIyLm4EE4backEv(ptr noundef nonnull align 8 dereferenceable(32) %0) #1 comdat align 2 {
  %2 = alloca ptr, align 8
  store ptr %0, ptr %2, align 8
  %3 = load ptr, ptr %2, align 8
  %4 = call noundef ptr @_ZNSt5arrayIyLm4EE3endEv(ptr noundef nonnull align 8 dereferenceable(32) %3) #28
  %5 = getelementptr inbounds i64, ptr %4, i64 -1
  ret ptr %5
}

; Function Attrs: mustprogress nounwind willreturn memory(none) uwtable
define linkonce_odr dso_local noundef ptr @_ZNSt5arrayIyLm4EE4dataEv(ptr noundef nonnull align 8 dereferenceable(32) %0) #18 comdat align 2 {
  %2 = alloca ptr, align 8
  store ptr %0, ptr %2, align 8
  %3 = load ptr, ptr %2, align 8
  %4 = getelementptr inbounds nuw %"struct.std::array", ptr %3, i32 0, i32 0
  %5 = call noundef ptr @_ZNSt14__array_traitsIyLm4EE6_S_ptrERA4_Ky(ptr noundef nonnull align 8 dereferenceable(32) %4) #23
  ret ptr %5
}

; Function Attrs: mustprogress nounwind uwtable
define linkonce_odr dso_local noundef nonnull align 8 dereferenceable(8) ptr @_ZNSt14__array_traitsIyLm4EE6_S_refERA4_Kym(ptr noundef nonnull align 8 dereferenceable(32) %0, i64 noundef %1) #1 comdat align 2 {
  %3 = alloca ptr, align 8
  %4 = alloca i64, align 8
  store ptr %0, ptr %3, align 8
  store i64 %1, ptr %4, align 8
  %5 = load ptr, ptr %3, align 8
  %6 = load i64, ptr %4, align 8
  %7 = getelementptr inbounds nuw [4 x i64], ptr %5, i64 0, i64 %6
  ret ptr %7
}

; Function Attrs: mustprogress nounwind uwtable
define linkonce_odr hidden void @_ZN3ue28bitfieldILm256EE13clear_trailerEv(ptr noundef nonnull align 8 dereferenceable(32) %0) #1 comdat align 2 {
  %2 = alloca ptr, align 8
  %3 = alloca i64, align 8
  store ptr %0, ptr %2, align 8
  %4 = load ptr, ptr %2, align 8
  call void @llvm.lifetime.start.p0(i64 8, ptr %3) #23
  store i64 0, ptr %3, align 8
  %5 = load i64, ptr %3, align 8
  %6 = icmp ne i64 %5, 0
  br i1 %6, label %7, label %15

7:                                                ; preds = %1
  %8 = load i64, ptr %3, align 8
  %9 = shl i64 1, %8
  %10 = sub i64 %9, 1
  %11 = getelementptr inbounds nuw %"class.ue2::bitfield", ptr %4, i32 0, i32 0
  %12 = call noundef nonnull align 8 dereferenceable(8) ptr @_ZNSt5arrayIyLm4EE4backEv(ptr noundef nonnull align 8 dereferenceable(32) %11) #23
  %13 = load i64, ptr %12, align 8
  %14 = and i64 %13, %10
  store i64 %14, ptr %12, align 8
  br label %15

15:                                               ; preds = %7, %1
  call void @llvm.lifetime.end.p0(i64 8, ptr %3) #23
  ret void
}

; Function Attrs: mustprogress nounwind willreturn memory(none) uwtable
define linkonce_odr dso_local noundef ptr @_ZNSt5arrayIyLm4EE3endEv(ptr noundef nonnull align 8 dereferenceable(32) %0) #18 comdat align 2 {
  %2 = alloca ptr, align 8
  store ptr %0, ptr %2, align 8
  %3 = load ptr, ptr %2, align 8
  %4 = call noundef ptr @_ZNSt5arrayIyLm4EE4dataEv(ptr noundef nonnull align 8 dereferenceable(32) %3) #28
  %5 = getelementptr inbounds nuw i64, ptr %4, i64 4
  ret ptr %5
}

; Function Attrs: mustprogress nounwind willreturn memory(none) uwtable
define linkonce_odr dso_local noundef ptr @_ZNSt5arrayIyLm4EE5beginEv(ptr noundef nonnull align 8 dereferenceable(32) %0) #18 comdat align 2 {
  %2 = alloca ptr, align 8
  store ptr %0, ptr %2, align 8
  %3 = load ptr, ptr %2, align 8
  %4 = call noundef ptr @_ZNSt5arrayIyLm4EE4dataEv(ptr noundef nonnull align 8 dereferenceable(32) %3) #28
  ret ptr %4
}

; Function Attrs: alwaysinline mustprogress nounwind uwtable
define internal noundef i32 @_ZL10popcount64y(i64 noundef %0) #4 {
  %2 = alloca i64, align 8
  store i64 %0, ptr %2, align 8
  %3 = load i64, ptr %2, align 8
  %4 = lshr i64 %3, 1
  %5 = and i64 %4, 6148914691236517205
  %6 = load i64, ptr %2, align 8
  %7 = sub i64 %6, %5
  store i64 %7, ptr %2, align 8
  %8 = load i64, ptr %2, align 8
  %9 = and i64 %8, 3689348814741910323
  %10 = load i64, ptr %2, align 8
  %11 = lshr i64 %10, 2
  %12 = and i64 %11, 3689348814741910323
  %13 = add i64 %9, %12
  store i64 %13, ptr %2, align 8
  %14 = load i64, ptr %2, align 8
  %15 = load i64, ptr %2, align 8
  %16 = lshr i64 %15, 4
  %17 = add i64 %14, %16
  %18 = and i64 %17, 1085102592571150095
  store i64 %18, ptr %2, align 8
  %19 = load i64, ptr %2, align 8
  %20 = mul i64 %19, 72340172838076673
  %21 = lshr i64 %20, 56
  %22 = trunc i64 %21 to i32
  ret i32 %22
}

; Function Attrs: mustprogress nounwind uwtable
define linkonce_odr dso_local noundef nonnull align 8 dereferenceable(8) ptr @_ZNKSt5arrayIyLm4EEixEm(ptr noundef nonnull align 8 dereferenceable(32) %0, i64 noundef %1) #1 comdat align 2 {
  %3 = alloca ptr, align 8
  %4 = alloca i64, align 8
  store ptr %0, ptr %3, align 8
  store i64 %1, ptr %4, align 8
  %5 = load ptr, ptr %3, align 8
  %6 = getelementptr inbounds nuw %"struct.std::array", ptr %5, i32 0, i32 0
  %7 = load i64, ptr %4, align 8
  %8 = call noundef nonnull align 8 dereferenceable(8) ptr @_ZNSt14__array_traitsIyLm4EE6_S_refERA4_Kym(ptr noundef nonnull align 8 dereferenceable(32) %6, i64 noundef %7) #23
  ret ptr %8
}

; Function Attrs: mustprogress uwtable
define linkonce_odr hidden void @_ZN3ue28bitfieldILm256EE4flipEv(ptr noundef nonnull align 8 dereferenceable(32) %0) #3 comdat align 2 {
  %2 = alloca ptr, align 8
  %3 = alloca ptr, align 8
  %4 = alloca ptr, align 8
  %5 = alloca ptr, align 8
  %6 = alloca ptr, align 8
  store ptr %0, ptr %2, align 8
  %7 = load ptr, ptr %2, align 8
  call void @llvm.lifetime.start.p0(i64 8, ptr %3) #23
  %8 = getelementptr inbounds nuw %"class.ue2::bitfield", ptr %7, i32 0, i32 0
  store ptr %8, ptr %3, align 8
  call void @llvm.lifetime.start.p0(i64 8, ptr %4) #23
  %9 = load ptr, ptr %3, align 8
  %10 = call noundef ptr @_ZNSt5arrayIyLm4EE5beginEv(ptr noundef nonnull align 8 dereferenceable(32) %9) #28
  store ptr %10, ptr %4, align 8
  call void @llvm.lifetime.start.p0(i64 8, ptr %5) #23
  %11 = load ptr, ptr %3, align 8
  %12 = call noundef ptr @_ZNSt5arrayIyLm4EE3endEv(ptr noundef nonnull align 8 dereferenceable(32) %11) #28
  store ptr %12, ptr %5, align 8
  br label %13

13:                                               ; preds = %24, %1
  %14 = load ptr, ptr %4, align 8
  %15 = load ptr, ptr %5, align 8
  %16 = icmp ne ptr %14, %15
  br i1 %16, label %18, label %17

17:                                               ; preds = %13
  call void @llvm.lifetime.end.p0(i64 8, ptr %5) #23
  call void @llvm.lifetime.end.p0(i64 8, ptr %4) #23
  call void @llvm.lifetime.end.p0(i64 8, ptr %3) #23
  br label %27

18:                                               ; preds = %13
  call void @llvm.lifetime.start.p0(i64 8, ptr %6) #23
  %19 = load ptr, ptr %4, align 8
  store ptr %19, ptr %6, align 8
  %20 = load ptr, ptr %6, align 8
  %21 = load i64, ptr %20, align 8
  %22 = xor i64 %21, -1
  %23 = load ptr, ptr %6, align 8
  store i64 %22, ptr %23, align 8
  call void @llvm.lifetime.end.p0(i64 8, ptr %6) #23
  br label %24

24:                                               ; preds = %18
  %25 = load ptr, ptr %4, align 8
  %26 = getelementptr inbounds nuw i64, ptr %25, i32 1
  store ptr %26, ptr %4, align 8
  br label %13

27:                                               ; preds = %17
  call void @_ZN3ue28bitfieldILm256EE13clear_trailerEv(ptr noundef nonnull align 8 dereferenceable(32) %7)
  ret void
}

; Function Attrs: mustprogress uwtable
define linkonce_odr hidden noundef i64 @_ZNK3ue28bitfieldILm256EE5countEv(ptr noundef nonnull align 8 dereferenceable(32) %0) #3 comdat align 2 {
  %2 = alloca ptr, align 8
  %3 = alloca i64, align 8
  %4 = alloca i64, align 8
  store ptr %0, ptr %2, align 8
  %5 = load ptr, ptr %2, align 8
  call void @llvm.lifetime.start.p0(i64 8, ptr %3) #23
  store i64 0, ptr %3, align 8
  call void @llvm.lifetime.start.p0(i64 8, ptr %4) #23
  store i64 0, ptr %4, align 8
  br label %6

6:                                                ; preds = %46, %1
  %7 = load i64, ptr %4, align 8
  %8 = add i64 %7, 4
  %9 = icmp ule i64 %8, 4
  br i1 %9, label %10, label %49

10:                                               ; preds = %6
  %11 = getelementptr inbounds nuw %"class.ue2::bitfield", ptr %5, i32 0, i32 0
  %12 = load i64, ptr %4, align 8
  %13 = call noundef nonnull align 8 dereferenceable(8) ptr @_ZNKSt5arrayIyLm4EEixEm(ptr noundef nonnull align 8 dereferenceable(32) %11, i64 noundef %12) #23
  %14 = load i64, ptr %13, align 8
  %15 = call noundef i32 @_ZL10popcount64y(i64 noundef %14)
  %16 = zext i32 %15 to i64
  %17 = load i64, ptr %3, align 8
  %18 = add i64 %17, %16
  store i64 %18, ptr %3, align 8
  %19 = getelementptr inbounds nuw %"class.ue2::bitfield", ptr %5, i32 0, i32 0
  %20 = load i64, ptr %4, align 8
  %21 = add i64 %20, 1
  %22 = call noundef nonnull align 8 dereferenceable(8) ptr @_ZNKSt5arrayIyLm4EEixEm(ptr noundef nonnull align 8 dereferenceable(32) %19, i64 noundef %21) #23
  %23 = load i64, ptr %22, align 8
  %24 = call noundef i32 @_ZL10popcount64y(i64 noundef %23)
  %25 = zext i32 %24 to i64
  %26 = load i64, ptr %3, align 8
  %27 = add i64 %26, %25
  store i64 %27, ptr %3, align 8
  %28 = getelementptr inbounds nuw %"class.ue2::bitfield", ptr %5, i32 0, i32 0
  %29 = load i64, ptr %4, align 8
  %30 = add i64 %29, 2
  %31 = call noundef nonnull align 8 dereferenceable(8) ptr @_ZNKSt5arrayIyLm4EEixEm(ptr noundef nonnull align 8 dereferenceable(32) %28, i64 noundef %30) #23
  %32 = load i64, ptr %31, align 8
  %33 = call noundef i32 @_ZL10popcount64y(i64 noundef %32)
  %34 = zext i32 %33 to i64
  %35 = load i64, ptr %3, align 8
  %36 = add i64 %35, %34
  store i64 %36, ptr %3, align 8
  %37 = getelementptr inbounds nuw %"class.ue2::bitfield", ptr %5, i32 0, i32 0
  %38 = load i64, ptr %4, align 8
  %39 = add i64 %38, 3
  %40 = call noundef nonnull align 8 dereferenceable(8) ptr @_ZNKSt5arrayIyLm4EEixEm(ptr noundef nonnull align 8 dereferenceable(32) %37, i64 noundef %39) #23
  %41 = load i64, ptr %40, align 8
  %42 = call noundef i32 @_ZL10popcount64y(i64 noundef %41)
  %43 = zext i32 %42 to i64
  %44 = load i64, ptr %3, align 8
  %45 = add i64 %44, %43
  store i64 %45, ptr %3, align 8
  br label %46

46:                                               ; preds = %10
  %47 = load i64, ptr %4, align 8
  %48 = add i64 %47, 4
  store i64 %48, ptr %4, align 8
  br label %6, !llvm.loop !31

49:                                               ; preds = %6
  br label %50

50:                                               ; preds = %62, %49
  %51 = load i64, ptr %4, align 8
  %52 = icmp ult i64 %51, 4
  br i1 %52, label %53, label %65

53:                                               ; preds = %50
  %54 = getelementptr inbounds nuw %"class.ue2::bitfield", ptr %5, i32 0, i32 0
  %55 = load i64, ptr %4, align 8
  %56 = call noundef nonnull align 8 dereferenceable(8) ptr @_ZNKSt5arrayIyLm4EEixEm(ptr noundef nonnull align 8 dereferenceable(32) %54, i64 noundef %55) #23
  %57 = load i64, ptr %56, align 8
  %58 = call noundef i32 @_ZL10popcount64y(i64 noundef %57)
  %59 = zext i32 %58 to i64
  %60 = load i64, ptr %3, align 8
  %61 = add i64 %60, %59
  store i64 %61, ptr %3, align 8
  br label %62

62:                                               ; preds = %53
  %63 = load i64, ptr %4, align 8
  %64 = add i64 %63, 1
  store i64 %64, ptr %4, align 8
  br label %50, !llvm.loop !32

65:                                               ; preds = %50
  %66 = load i64, ptr %3, align 8
  call void @llvm.lifetime.end.p0(i64 8, ptr %4) #23
  call void @llvm.lifetime.end.p0(i64 8, ptr %3) #23
  ret i64 %66
}

; Function Attrs: mustprogress uwtable
define linkonce_odr hidden void @_ZN3ue29CharReach4flipEv(ptr noundef nonnull align 8 dereferenceable(32) %0) #3 comdat align 2 {
  %2 = alloca ptr, align 8
  store ptr %0, ptr %2, align 8
  %3 = load ptr, ptr %2, align 8
  %4 = getelementptr inbounds nuw %"class.ue2::CharReach", ptr %3, i32 0, i32 0
  call void @_ZN3ue28bitfieldILm256EE4flipEv(ptr noundef nonnull align 8 dereferenceable(32) %4)
  ret void
}

; Function Attrs: alwaysinline mustprogress nounwind uwtable
define internal noundef i32 @_ZL10popcount32j(i32 noundef %0) #4 {
  %2 = alloca i32, align 4
  store i32 %0, ptr %2, align 4
  %3 = load i32, ptr %2, align 4
  %4 = lshr i32 %3, 1
  %5 = and i32 %4, 1431655765
  %6 = load i32, ptr %2, align 4
  %7 = sub i32 %6, %5
  store i32 %7, ptr %2, align 4
  %8 = load i32, ptr %2, align 4
  %9 = and i32 %8, 858993459
  %10 = load i32, ptr %2, align 4
  %11 = lshr i32 %10, 2
  %12 = and i32 %11, 858993459
  %13 = add i32 %9, %12
  store i32 %13, ptr %2, align 4
  %14 = load i32, ptr %2, align 4
  %15 = load i32, ptr %2, align 4
  %16 = lshr i32 %15, 4
  %17 = add i32 %14, %16
  %18 = and i32 %17, 252645135
  %19 = mul i32 %18, 16843009
  %20 = lshr i32 %19, 24
  ret i32 %20
}

; Function Attrs: mustprogress uwtable
define linkonce_odr hidden noundef i64 @_ZNK3ue29CharReach5countEv(ptr noundef nonnull align 8 dereferenceable(32) %0) #3 comdat align 2 {
  %2 = alloca ptr, align 8
  store ptr %0, ptr %2, align 8
  %3 = load ptr, ptr %2, align 8
  %4 = getelementptr inbounds nuw %"class.ue2::CharReach", ptr %3, i32 0, i32 0
  %5 = call noundef i64 @_ZNK3ue28bitfieldILm256EE5countEv(ptr noundef nonnull align 8 dereferenceable(32) %4)
  ret i64 %5
}

; Function Attrs: mustprogress uwtable
define linkonce_odr hidden void @_ZNK3ue29CharReachcoEv(ptr dead_on_unwind noalias writable sret(%"class.ue2::CharReach") align 8 %0, ptr noundef nonnull align 8 dereferenceable(32) %1) #3 comdat align 2 {
  %3 = alloca ptr, align 8
  store ptr %1, ptr %3, align 8
  %4 = load ptr, ptr %3, align 8
  call void @llvm.memcpy.p0.p0.i64(ptr align 8 %0, ptr align 8 %4, i64 32, i1 false)
  call void @_ZN3ue29CharReach4flipEv(ptr noundef nonnull align 8 dereferenceable(32) %0)
  ret void
}

; Function Attrs: mustprogress uwtable
define internal noundef zeroext i1 @_ZN3ue2L14checkReachMaskERKNS_9CharReachERhS3_(ptr noundef nonnull align 8 dereferenceable(32) %0, ptr noundef nonnull align 1 dereferenceable(1) %1, ptr noundef nonnull align 1 dereferenceable(1) %2) #3 {
  %4 = alloca i1, align 1
  %5 = alloca ptr, align 8
  %6 = alloca ptr, align 8
  %7 = alloca ptr, align 8
  %8 = alloca i64, align 8
  %9 = alloca i32, align 4
  store ptr %0, ptr %5, align 8
  store ptr %1, ptr %6, align 8
  store ptr %2, ptr %7, align 8
  call void @llvm.lifetime.start.p0(i64 8, ptr %8) #23
  %10 = load ptr, ptr %5, align 8
  %11 = call noundef i64 @_ZNK3ue29CharReach5countEv(ptr noundef nonnull align 8 dereferenceable(32) %10)
  store i64 %11, ptr %8, align 8
  %12 = load i64, ptr %8, align 8
  %13 = sub i64 %12, 1
  %14 = load i64, ptr %8, align 8
  %15 = and i64 %13, %14
  %16 = icmp ne i64 %15, 0
  br i1 %16, label %17, label %18

17:                                               ; preds = %3
  store i1 false, ptr %4, align 1
  store i32 1, ptr %9, align 4
  br label %36

18:                                               ; preds = %3
  %19 = load ptr, ptr %5, align 8
  %20 = load ptr, ptr %6, align 8
  %21 = load ptr, ptr %7, align 8
  call void @_ZN3ue217make_and_cmp_maskERKNS_9CharReachEPhS3_(ptr noundef nonnull align 8 dereferenceable(32) %19, ptr noundef %20, ptr noundef %21)
  %22 = load ptr, ptr %6, align 8
  %23 = load i8, ptr %22, align 1
  %24 = zext i8 %23 to i32
  %25 = xor i32 %24, -1
  %26 = trunc i32 %25 to i8
  %27 = zext i8 %26 to i32
  %28 = call noundef i32 @_ZL10popcount32j(i32 noundef %27)
  %29 = shl i32 1, %28
  %30 = sext i32 %29 to i64
  %31 = load i64, ptr %8, align 8
  %32 = xor i64 %30, %31
  %33 = icmp ne i64 %32, 0
  br i1 %33, label %34, label %35

34:                                               ; preds = %18
  store i1 false, ptr %4, align 1
  store i32 1, ptr %9, align 4
  br label %36

35:                                               ; preds = %18
  store i1 true, ptr %4, align 1
  store i32 1, ptr %9, align 4
  br label %36

36:                                               ; preds = %35, %34, %17
  call void @llvm.lifetime.end.p0(i64 8, ptr %8) #23
  %37 = load i1, ptr %4, align 1
  ret i1 %37
}

; Function Attrs: mustprogress uwtable
define internal noundef zeroext i1 @_ZN3ue2L18checkReachWithFlipERKNS_9CharReachERhS3_S3_(ptr noundef nonnull align 8 dereferenceable(32) %0, ptr noundef nonnull align 1 dereferenceable(1) %1, ptr noundef nonnull align 1 dereferenceable(1) %2, ptr noundef nonnull align 1 dereferenceable(1) %3) #3 {
  %5 = alloca i1, align 1
  %6 = alloca ptr, align 8
  %7 = alloca ptr, align 8
  %8 = alloca ptr, align 8
  %9 = alloca ptr, align 8
  %10 = alloca %"class.ue2::CharReach", align 8
  store ptr %0, ptr %6, align 8
  store ptr %1, ptr %7, align 8
  store ptr %2, ptr %8, align 8
  store ptr %3, ptr %9, align 8
  %11 = load ptr, ptr %6, align 8
  %12 = load ptr, ptr %7, align 8
  %13 = load ptr, ptr %8, align 8
  %14 = call noundef zeroext i1 @_ZN3ue2L14checkReachMaskERKNS_9CharReachERhS3_(ptr noundef nonnull align 8 dereferenceable(32) %11, ptr noundef nonnull align 1 dereferenceable(1) %12, ptr noundef nonnull align 1 dereferenceable(1) %13)
  br i1 %14, label %15, label %17

15:                                               ; preds = %4
  %16 = load ptr, ptr %9, align 8
  store i8 0, ptr %16, align 1
  store i1 true, ptr %5, align 1
  br label %25

17:                                               ; preds = %4
  call void @llvm.lifetime.start.p0(i64 32, ptr %10) #23
  %18 = load ptr, ptr %6, align 8
  call void @_ZNK3ue29CharReachcoEv(ptr dead_on_unwind writable sret(%"class.ue2::CharReach") align 8 %10, ptr noundef nonnull align 8 dereferenceable(32) %18)
  %19 = load ptr, ptr %7, align 8
  %20 = load ptr, ptr %8, align 8
  %21 = call noundef zeroext i1 @_ZN3ue2L14checkReachMaskERKNS_9CharReachERhS3_(ptr noundef nonnull align 8 dereferenceable(32) %10, ptr noundef nonnull align 1 dereferenceable(1) %19, ptr noundef nonnull align 1 dereferenceable(1) %20)
  call void @llvm.lifetime.end.p0(i64 32, ptr %10) #23
  br i1 %21, label %22, label %24

22:                                               ; preds = %17
  %23 = load ptr, ptr %9, align 8
  store i8 1, ptr %23, align 1
  store i1 true, ptr %5, align 1
  br label %25

24:                                               ; preds = %17
  store i1 false, ptr %5, align 1
  br label %25

25:                                               ; preds = %24, %22, %15
  %26 = load i1, ptr %5, align 1
  ret i1 %26
}