; Function Attrs: mustprogress uwtable
define internal fastcc noundef zeroext i1 @_ZN3ue2L18checkReachWithFlipERKNS_9CharReachERhS3_S3_(ptr noundef nonnull align 8 dereferenceable(32) %0, ptr noundef nonnull align 1 dereferenceable(1) %1, ptr noundef nonnull align 1 dereferenceable(1) %2, ptr noundef nonnull writeonly align 1 captures(none) dereferenceable(1) %3) unnamed_addr #0 {
  %5 = alloca %"class.ue2::CharReach", align 8
  %6 = load i64, ptr %0, align 8
  %7 = tail call range(i64 0, 65) i64 @llvm.ctpop.i64(i64 %6)
  %8 = getelementptr inbounds nuw i8, ptr %0, i64 8
  %9 = load i64, ptr %8, align 8
  %10 = tail call range(i64 0, 65) i64 @llvm.ctpop.i64(i64 %9)
  %11 = add nuw nsw i64 %10, %7
  %12 = getelementptr inbounds nuw i8, ptr %0, i64 16
  %13 = load i64, ptr %12, align 8
  %14 = tail call range(i64 0, 65) i64 @llvm.ctpop.i64(i64 %13)
  %15 = add nuw nsw i64 %11, %14
  %16 = getelementptr inbounds nuw i8, ptr %0, i64 24
  %17 = load i64, ptr %16, align 8
  %18 = tail call range(i64 0, 65) i64 @llvm.ctpop.i64(i64 %17)
  %19 = add nuw nsw i64 %15, %18
  %20 = tail call range(i64 0, 11) i64 @llvm.ctpop.i64(i64 %19)
  %.not.i = icmp samesign ult i64 %20, 2
  br i1 %.not.i, label %_ZN3ue2L14checkReachMaskERKNS_9CharReachERhS3_.exit, label %_ZN3ue2L14checkReachMaskERKNS_9CharReachERhS3_.exit.thread

_ZN3ue2L14checkReachMaskERKNS_9CharReachERhS3_.exit: ; preds = %4
  tail call void @_ZN3ue217make_and_cmp_maskERKNS_9CharReachEPhS3_(ptr noundef nonnull align 8 dereferenceable(32) %0, ptr noundef nonnull align 1 dereferenceable(1) %1, ptr noundef nonnull align 1 dereferenceable(1) %2)
  %21 = load i8, ptr %1, align 1
  %22 = xor i8 %21, -1
  %23 = zext i8 %22 to i32
  %24 = lshr i32 %23, 1
  %25 = and i32 %24, 85
  %26 = sub nsw i32 %23, %25
  %27 = and i32 %26, 858993459
  %28 = lshr i32 %26, 2
  %29 = and i32 %28, 858993459
  %30 = add nuw nsw i32 %29, %27
  %31 = lshr i32 %30, 4
  %32 = add nuw nsw i32 %31, %30
  %33 = and i32 %32, 252645135
  %34 = mul i32 %33, 16843009
  %35 = lshr i32 %34, 24
  %36 = shl nuw i32 1, %35
  %37 = sext i32 %36 to i64
  %.not8.i = icmp eq i64 %19, %37
  br i1 %.not8.i, label %38, label %_ZN3ue2L14checkReachMaskERKNS_9CharReachERhS3_.exit.thread

38:                                               ; preds = %_ZN3ue2L14checkReachMaskERKNS_9CharReachERhS3_.exit
  store i8 0, ptr %3, align 1
  br label %75

_ZN3ue2L14checkReachMaskERKNS_9CharReachERhS3_.exit.thread: ; preds = %4, %_ZN3ue2L14checkReachMaskERKNS_9CharReachERhS3_.exit
  call void @llvm.lifetime.start.p0(i64 32, ptr nonnull %5) #29
  call void @llvm.memcpy.p0.p0.i64(ptr noundef nonnull align 8 dereferenceable(32) %5, ptr noundef nonnull align 8 dereferenceable(32) %0, i64 32, i1 false)
  br label %39

39:                                               ; preds = %39, %_ZN3ue2L14checkReachMaskERKNS_9CharReachERhS3_.exit.thread
  %.0.idx9.i.i.i = phi i64 [ 0, %_ZN3ue2L14checkReachMaskERKNS_9CharReachERhS3_.exit.thread ], [ %.0.add.i.i.i, %39 ]
  %.0.ptr.i.i.i = getelementptr inbounds nuw i8, ptr %5, i64 %.0.idx9.i.i.i
  %40 = load i64, ptr %.0.ptr.i.i.i, align 8, !alias.scope !585
  %41 = xor i64 %40, -1
  store i64 %41, ptr %.0.ptr.i.i.i, align 8, !alias.scope !585
  %.0.add.i.i.i = add nuw nsw i64 %.0.idx9.i.i.i, 8
  %.not.i.i.i = icmp eq i64 %.0.add.i.i.i, 32
  br i1 %.not.i.i.i, label %_ZNK3ue29CharReachcoEv.exit, label %39

_ZNK3ue29CharReachcoEv.exit:                      ; preds = %39
  %42 = load i64, ptr %5, align 8
  %43 = tail call range(i64 0, 65) i64 @llvm.ctpop.i64(i64 %42)
  %44 = getelementptr inbounds nuw i8, ptr %5, i64 8
  %45 = load i64, ptr %44, align 8
  %46 = tail call range(i64 0, 65) i64 @llvm.ctpop.i64(i64 %45)
  %47 = add nuw nsw i64 %46, %43
  %48 = getelementptr inbounds nuw i8, ptr %5, i64 16
  %49 = load i64, ptr %48, align 8
  %50 = tail call range(i64 0, 65) i64 @llvm.ctpop.i64(i64 %49)
  %51 = add nuw nsw i64 %47, %50
  %52 = getelementptr inbounds nuw i8, ptr %5, i64 24
  %53 = load i64, ptr %52, align 8
  %54 = tail call range(i64 0, 65) i64 @llvm.ctpop.i64(i64 %53)
  %55 = add nuw nsw i64 %51, %54
  %56 = tail call range(i64 0, 11) i64 @llvm.ctpop.i64(i64 %55)
  %.not.i9 = icmp samesign ult i64 %56, 2
  br i1 %.not.i9, label %_ZN3ue2L14checkReachMaskERKNS_9CharReachERhS3_.exit12, label %_ZN3ue2L14checkReachMaskERKNS_9CharReachERhS3_.exit12.thread

_ZN3ue2L14checkReachMaskERKNS_9CharReachERhS3_.exit12.thread: ; preds = %_ZNK3ue29CharReachcoEv.exit
  call void @llvm.lifetime.end.p0(i64 32, ptr nonnull %5) #29
  br label %75

_ZN3ue2L14checkReachMaskERKNS_9CharReachERhS3_.exit12: ; preds = %_ZNK3ue29CharReachcoEv.exit
  call void @_ZN3ue217make_and_cmp_maskERKNS_9CharReachEPhS3_(ptr noundef nonnull align 8 dereferenceable(32) %5, ptr noundef nonnull align 1 dereferenceable(1) %1, ptr noundef nonnull align 1 dereferenceable(1) %2)
  %57 = load i8, ptr %1, align 1
  %58 = xor i8 %57, -1
  %59 = zext i8 %58 to i32
  %60 = lshr i32 %59, 1
  %61 = and i32 %60, 85
  %62 = sub nsw i32 %59, %61
  %63 = and i32 %62, 858993459
  %64 = lshr i32 %62, 2
  %65 = and i32 %64, 858993459
  %66 = add nuw nsw i32 %65, %63
  %67 = lshr i32 %66, 4
  %68 = add nuw nsw i32 %67, %66
  %69 = and i32 %68, 252645135
  %70 = mul i32 %69, 16843009
  %71 = lshr i32 %70, 24
  %72 = shl nuw i32 1, %71
  %73 = sext i32 %72 to i64
  %.not8.i11 = icmp eq i64 %55, %73
  call void @llvm.lifetime.end.p0(i64 32, ptr nonnull %5) #29
  br i1 %.not8.i11, label %74, label %75

74:                                               ; preds = %_ZN3ue2L14checkReachMaskERKNS_9CharReachERhS3_.exit12
  store i8 1, ptr %3, align 1
  br label %75

75:                                               ; preds = %_ZN3ue2L14checkReachMaskERKNS_9CharReachERhS3_.exit12.thread, %_ZN3ue2L14checkReachMaskERKNS_9CharReachERhS3_.exit12, %74, %38
  %.0 = phi i1 [ true, %38 ], [ true, %74 ], [ false, %_ZN3ue2L14checkReachMaskERKNS_9CharReachERhS3_.exit12 ], [ false, %_ZN3ue2L14checkReachMaskERKNS_9CharReachERhS3_.exit12.thread ]
  ret i1 %.0
}